target datalayout = "e-m:e-p270:32:32-p271:32:32-p272:64:64-i64:64-i128:128-f80:128-n8:16:32:64-S128"
target triple = "x86_64-pc-linux-gnu"

%struct.Trigger = type { i32, ptr, i32, i16, i8, i8, i8, i32, i32, i32, i8, i8, i16, i16, ptr, ptr, ptr, ptr, ptr }
%struct.TriggerDesc = type { ptr, i32, i8, i8, i8, i8, i8, i8, i8, i8, i8, i8, i8, i8, i8, i8, i8, i8, i8, i8, i8, i8, i8 }

; Function Attrs: nounwind uwtable
define dso_local ptr @CopyTriggerDesc(ptr noundef %0) #0 {
  %2 = alloca ptr, align 8
  %3 = alloca ptr, align 8
  %4 = alloca ptr, align 8
  %5 = alloca ptr, align 8
  %6 = alloca i32, align 4
  %7 = alloca i32, align 4
  %8 = alloca ptr, align 8
  %9 = alloca ptr, align 8
  %10 = alloca i16, align 2
  store ptr %0, ptr %3, align 8
  call void @llvm.lifetime.start.p0(i64 8, ptr %4) #12
  call void @llvm.lifetime.start.p0(i64 8, ptr %5) #12
  call void @llvm.lifetime.start.p0(i64 4, ptr %6) #12
  %11 = load ptr, ptr %3, align 8
  %12 = icmp eq ptr %11, null
  br i1 %12, label %18, label %13

13:                                               ; preds = %1
  %14 = load ptr, ptr %3, align 8
  %15 = getelementptr inbounds nuw %struct.TriggerDesc, ptr %14, i32 0, i32 1
  %16 = load i32, ptr %15, align 8
  %17 = icmp sle i32 %16, 0
  br i1 %17, label %18, label %19

18:                                               ; preds = %13, %1
  store ptr null, ptr %2, align 8
  store i32 1, ptr %7, align 4
  br label %163

19:                                               ; preds = %13
  %20 = call ptr @palloc(i64 noundef 40)
  store ptr %20, ptr %4, align 8
  %21 = load ptr, ptr %4, align 8
  %22 = load ptr, ptr %3, align 8
  call void @llvm.memcpy.p0.p0.i64(ptr align 8 %21, ptr align 8 %22, i64 40, i1 false)
  %23 = load ptr, ptr %3, align 8
  %24 = getelementptr inbounds nuw %struct.TriggerDesc, ptr %23, i32 0, i32 1
  %25 = load i32, ptr %24, align 8
  %26 = sext i32 %25 to i64
  %27 = mul i64 %26, 88
  %28 = call ptr @palloc(i64 noundef %27)
  store ptr %28, ptr %5, align 8
  %29 = load ptr, ptr %5, align 8
  %30 = load ptr, ptr %3, align 8
  %31 = getelementptr inbounds nuw %struct.TriggerDesc, ptr %30, i32 0, i32 0
  %32 = load ptr, ptr %31, align 8
  %33 = load ptr, ptr %3, align 8
  %34 = getelementptr inbounds nuw %struct.TriggerDesc, ptr %33, i32 0, i32 1
  %35 = load i32, ptr %34, align 8
  %36 = sext i32 %35 to i64
  %37 = mul i64 %36, 88
  call void @llvm.memcpy.p0.p0.i64(ptr align 8 %29, ptr align 8 %32, i64 %37, i1 false)
  %38 = load ptr, ptr %5, align 8
  %39 = load ptr, ptr %4, align 8
  %40 = getelementptr inbounds nuw %struct.TriggerDesc, ptr %39, i32 0, i32 0
  store ptr %38, ptr %40, align 8
  store i32 0, ptr %6, align 4
  br label %41

41:                                               ; preds = %158, %19
  %42 = load i32, ptr %6, align 4
  %43 = load ptr, ptr %3, align 8
  %44 = getelementptr inbounds nuw %struct.TriggerDesc, ptr %43, i32 0, i32 1
  %45 = load i32, ptr %44, align 8
  %46 = icmp slt i32 %42, %45
  br i1 %46, label %47, label %161

47:                                               ; preds = %41
  %48 = load ptr, ptr %5, align 8
  %49 = getelementptr inbounds nuw %struct.Trigger, ptr %48, i32 0, i32 1
  %50 = load ptr, ptr %49, align 8
  %51 = call ptr @pstrdup(ptr noundef %50)
  %52 = load ptr, ptr %5, align 8
  %53 = getelementptr inbounds nuw %struct.Trigger, ptr %52, i32 0, i32 1
  store ptr %51, ptr %53, align 8
  %54 = load ptr, ptr %5, align 8
  %55 = getelementptr inbounds nuw %struct.Trigger, ptr %54, i32 0, i32 13
  %56 = load i16, ptr %55, align 4
  %57 = sext i16 %56 to i32
  %58 = icmp sgt i32 %57, 0
  br i1 %58, label %59, label %78

59:                                               ; preds = %47
  call void @llvm.lifetime.start.p0(i64 8, ptr %8) #12
  %60 = load ptr, ptr %5, align 8
  %61 = getelementptr inbounds nuw %struct.Trigger, ptr %60, i32 0, i32 13
  %62 = load i16, ptr %61, align 4
  %63 = sext i16 %62 to i64
  %64 = mul i64 %63, 2
  %65 = call ptr @palloc(i64 noundef %64)
  store ptr %65, ptr %8, align 8
  %66 = load ptr, ptr %8, align 8
  %67 = load ptr, ptr %5, align 8
  %68 = getelementptr inbounds nuw %struct.Trigger, ptr %67, i32 0, i32 14
  %69 = load ptr, ptr %68, align 8
  %70 = load ptr, ptr %5, align 8
  %71 = getelementptr inbounds nuw %struct.Trigger, ptr %70, i32 0, i32 13
  %72 = load i16, ptr %71, align 4
  %73 = sext i16 %72 to i64
  %74 = mul i64 %73, 2
  call void @llvm.memcpy.p0.p0.i64(ptr align 2 %66, ptr align 2 %69, i64 %74, i1 false)
  %75 = load ptr, ptr %8, align 8
  %76 = load ptr, ptr %5, align 8
  %77 = getelementptr inbounds nuw %struct.Trigger, ptr %76, i32 0, i32 14
  store ptr %75, ptr %77, align 8
  call void @llvm.lifetime.end.p0(i64 8, ptr %8) #12
  br label %78

78:                                               ; preds = %59, %47
  %79 = load ptr, ptr %5, align 8
  %80 = getelementptr inbounds nuw %struct.Trigger, ptr %79, i32 0, i32 12
  %81 = load i16, ptr %80, align 2
  %82 = sext i16 %81 to i32
  %83 = icmp sgt i32 %82, 0
  br i1 %83, label %84, label %119

84:                                               ; preds = %78
  call void @llvm.lifetime.start.p0(i64 8, ptr %9) #12
  call void @llvm.lifetime.start.p0(i64 2, ptr %10) #12
  %85 = load ptr, ptr %5, align 8
  %86 = getelementptr inbounds nuw %struct.Trigger, ptr %85, i32 0, i32 12
  %87 = load i16, ptr %86, align 2
  %88 = sext i16 %87 to i64
  %89 = mul i64 %88, 8
  %90 = call ptr @palloc(i64 noundef %89)
  store ptr %90, ptr %9, align 8
  store i16 0, ptr %10, align 2
  br label %91

91:                                               ; preds = %112, %84
  %92 = load i16, ptr %10, align 2
  %93 = sext i16 %92 to i32
  %94 = load ptr, ptr %5, align 8
  %95 = getelementptr inbounds nuw %struct.Trigger, ptr %94, i32 0, i32 12
  %96 = load i16, ptr %95, align 2
  %97 = sext i16 %96 to i32
  %98 = icmp slt i32 %93, %97
  br i1 %98, label %99, label %115

99:                                               ; preds = %91
  %100 = load ptr, ptr %5, align 8
  %101 = getelementptr inbounds nuw %struct.Trigger, ptr %100, i32 0, i32 15
  %102 = load ptr, ptr %101, align 8
  %103 = load i16, ptr %10, align 2
  %104 = sext i16 %103 to i64
  %105 = getelementptr inbounds ptr, ptr %102, i64 %104
  %106 = load ptr, ptr %105, align 8
  %107 = call ptr @pstrdup(ptr noundef %106)
  %108 = load ptr, ptr %9, align 8
  %109 = load i16, ptr %10, align 2
  %110 = sext i16 %109 to i64
  %111 = getelementptr inbounds ptr, ptr %108, i64 %110
  store ptr %107, ptr %111, align 8
  br label %112

112:                                              ; preds = %99
  %113 = load i16, ptr %10, align 2
  %114 = add i16 %113, 1
  store i16 %114, ptr %10, align 2
  br label %91, !llvm.loop !25

115:                                              ; preds = %91
  %116 = load ptr, ptr %9, align 8
  %117 = load ptr, ptr %5, align 8
  %118 = getelementptr inbounds nuw %struct.Trigger, ptr %117, i32 0, i32 15
  store ptr %116, ptr %118, align 8
  call void @llvm.lifetime.end.p0(i64 2, ptr %10) #12
  call void @llvm.lifetime.end.p0(i64 8, ptr %9) #12
  br label %119

119:                                              ; preds = %115, %78
  %120 = load ptr, ptr %5, align 8
  %121 = getelementptr inbounds nuw %struct.Trigger, ptr %120, i32 0, i32 16
  %122 = load ptr, ptr %121, align 8
  %123 = icmp ne ptr %122, null
  br i1 %123, label %124, label %131

124:                                              ; preds = %119
  %125 = load ptr, ptr %5, align 8
  %126 = getelementptr inbounds nuw %struct.Trigger, ptr %125, i32 0, i32 16
  %127 = load ptr, ptr %126, align 8
  %128 = call ptr @pstrdup(ptr noundef %127)
  %129 = load ptr, ptr %5, align 8
  %130 = getelementptr inbounds nuw %struct.Trigger, ptr %129, i32 0, i32 16
  store ptr %128, ptr %130, align 8
  br label %131

131:                                              ; preds = %124, %119
  %132 = load ptr, ptr %5, align 8
  %133 = getelementptr inbounds nuw %struct.Trigger, ptr %132, i32 0, i32 17
  %134 = load ptr, ptr %133, align 8
  %135 = icmp ne ptr %134, null
  br i1 %135, label %136, label %143

136:                                              ; preds = %131
  %137 = load ptr, ptr %5, align 8
  %138 = getelementptr inbounds nuw %struct.Trigger, ptr %137, i32 0, i32 17
  %139 = load ptr, ptr %138, align 8
  %140 = call ptr @pstrdup(ptr noundef %139)
  %141 = load ptr, ptr %5, align 8
  %142 = getelementptr inbounds nuw %struct.Trigger, ptr %141, i32 0, i32 17
  store ptr %140, ptr %142, align 8
  br label %143

143:                                              ; preds = %136, %131
  %144 = load ptr, ptr %5, align 8
  %145 = getelementptr inbounds nuw %struct.Trigger, ptr %144, i32 0, i32 18
  %146 = load ptr, ptr %145, align 8
  %147 = icmp ne ptr %146, null
  br i1 %147, label %148, label %155

148:                                              ; preds = %143
  %149 = load ptr, ptr %5, align 8
  %150 = getelementptr inbounds nuw %struct.Trigger, ptr %149, i32 0, i32 18
  %151 = load ptr, ptr %150, align 8
  %152 = call ptr @pstrdup(ptr noundef %151)
  %153 = load ptr, ptr %5, align 8
  %154 = getelementptr inbounds nuw %struct.Trigger, ptr %153, i32 0, i32 18
  store ptr %152, ptr %154, align 8
  br label %155

155:                                              ; preds = %148, %143
  %156 = load ptr, ptr %5, align 8
  %157 = getelementptr inbounds nuw %struct.Trigger, ptr %156, i32 1
  store ptr %157, ptr %5, align 8
  br label %158

158:                                              ; preds = %155
  %159 = load i32, ptr %6, align 4
  %160 = add i32 %159, 1
  store i32 %160, ptr %6, align 4
  br label %41, !llvm.loop !26

161:                                              ; preds = %41
  %162 = load ptr, ptr %4, align 8
  store ptr %162, ptr %2, align 8
  store i32 1, ptr %7, align 4
  br label %163

163:                                              ; preds = %161, %18
  call void @llvm.lifetime.end.p0(i64 4, ptr %6) #12
  call void @llvm.lifetime.end.p0(i64 8, ptr %5) #12
  call void @llvm.lifetime.end.p0(i64 8, ptr %4) #12
  %164 = load ptr, ptr %2, align 8
  ret ptr %164
}