; Function Attrs: nounwind uwtable
define dso_local noundef ptr @CopyTriggerDesc(ptr noundef readonly captures(address_is_null) %0) local_unnamed_addr #0 {
  %2 = icmp eq ptr %0, null
  br i1 %2, label %.loopexit, label %3

3:                                                ; preds = %1
  %4 = getelementptr inbounds nuw i8, ptr %0, i64 8
  %5 = load i32, ptr %4, align 8
  %6 = icmp slt i32 %5, 1
  br i1 %6, label %.loopexit, label %7

7:                                                ; preds = %3
  %8 = tail call ptr @palloc(i64 noundef 40) #16
  tail call void @llvm.memcpy.p0.p0.i64(ptr noundef nonnull align 8 dereferenceable(40) %8, ptr noundef nonnull align 8 dereferenceable(40) %0, i64 40, i1 false)
  %9 = load i32, ptr %4, align 8
  %10 = sext i32 %9 to i64
  %11 = mul nsw i64 %10, 88
  %12 = tail call ptr @palloc(i64 noundef %11) #16
  %13 = load ptr, ptr %0, align 8
  %14 = load i32, ptr %4, align 8
  %15 = sext i32 %14 to i64
  %16 = mul nsw i64 %15, 88
  tail call void @llvm.memcpy.p0.p0.i64(ptr align 8 %12, ptr align 8 %13, i64 %16, i1 false)
  store ptr %12, ptr %8, align 8
  %17 = load i32, ptr %4, align 8
  %18 = icmp sgt i32 %17, 0
  br i1 %18, label %.lr.ph58, label %.loopexit

.lr.ph58:                                         ; preds = %7, %70
  %.04555 = phi ptr [ %71, %70 ], [ %12, %7 ]
  %.04654 = phi i32 [ %72, %70 ], [ 0, %7 ]
  %19 = getelementptr inbounds nuw i8, ptr %.04555, i64 8
  %20 = load ptr, ptr %19, align 8
  %21 = tail call ptr @pstrdup(ptr noundef %20) #16
  store ptr %21, ptr %19, align 8
  %22 = getelementptr inbounds nuw i8, ptr %.04555, i64 44
  %23 = load i16, ptr %22, align 4
  %24 = icmp sgt i16 %23, 0
  br i1 %24, label %25, label %34

25:                                               ; preds = %.lr.ph58
  %26 = shl nuw i16 %23, 1
  %27 = zext i16 %26 to i64
  %28 = tail call ptr @palloc(i64 noundef %27) #16
  %29 = getelementptr inbounds nuw i8, ptr %.04555, i64 48
  %30 = load ptr, ptr %29, align 8
  %31 = load i16, ptr %22, align 4
  %32 = sext i16 %31 to i64
  %33 = shl nsw i64 %32, 1
  tail call void @llvm.memcpy.p0.p0.i64(ptr align 2 %28, ptr align 2 %30, i64 %33, i1 false)
  store ptr %28, ptr %29, align 8
  br label %34

34:                                               ; preds = %25, %.lr.ph58
  %35 = getelementptr inbounds nuw i8, ptr %.04555, i64 42
  %36 = load i16, ptr %35, align 2
  %37 = icmp sgt i16 %36, 0
  br i1 %37, label %38, label %55

38:                                               ; preds = %34
  %39 = zext nneg i16 %36 to i64
  %40 = shl nuw nsw i64 %39, 3
  %41 = tail call ptr @palloc(i64 noundef %40) #16
  %42 = load i16, ptr %35, align 2
  %43 = icmp sgt i16 %42, 0
  br i1 %43, label %.lr.ph, label %._crit_edge

.lr.ph:                                           ; preds = %38
  %44 = getelementptr inbounds nuw i8, ptr %.04555, i64 56
  br label %45

45:                                               ; preds = %.lr.ph, %45
  %indvars.iv = phi i64 [ 0, %.lr.ph ], [ %indvars.iv.next, %45 ]
  %46 = load ptr, ptr %44, align 8
  %47 = getelementptr inbounds nuw ptr, ptr %46, i64 %indvars.iv
  %48 = load ptr, ptr %47, align 8
  %49 = tail call ptr @pstrdup(ptr noundef %48) #16
  %50 = getelementptr inbounds nuw ptr, ptr %41, i64 %indvars.iv
  store ptr %49, ptr %50, align 8
  %indvars.iv.next = add nuw nsw i64 %indvars.iv, 1
  %51 = load i16, ptr %35, align 2
  %52 = sext i16 %51 to i64
  %53 = icmp slt i64 %indvars.iv.next, %52
  br i1 %53, label %45, label %._crit_edge, !llvm.loop !22

._crit_edge:                                      ; preds = %45, %38
  %54 = getelementptr inbounds nuw i8, ptr %.04555, i64 56
  store ptr %41, ptr %54, align 8
  br label %55

55:                                               ; preds = %._crit_edge, %34
  %56 = getelementptr inbounds nuw i8, ptr %.04555, i64 64
  %57 = load ptr, ptr %56, align 8
  %.not = icmp eq ptr %57, null
  br i1 %.not, label %60, label %58

58:                                               ; preds = %55
  %59 = tail call ptr @pstrdup(ptr noundef nonnull %57) #16
  store ptr %59, ptr %56, align 8
  br label %60

60:                                               ; preds = %58, %55
  %61 = getelementptr inbounds nuw i8, ptr %.04555, i64 72
  %62 = load ptr, ptr %61, align 8
  %.not51 = icmp eq ptr %62, null
  br i1 %.not51, label %65, label %63

63:                                               ; preds = %60
  %64 = tail call ptr @pstrdup(ptr noundef nonnull %62) #16
  store ptr %64, ptr %61, align 8
  br label %65

65:                                               ; preds = %63, %60
  %66 = getelementptr inbounds nuw i8, ptr %.04555, i64 80
  %67 = load ptr, ptr %66, align 8
  %.not52 = icmp eq ptr %67, null
  br i1 %.not52, label %70, label %68

68:                                               ; preds = %65
  %69 = tail call ptr @pstrdup(ptr noundef nonnull %67) #16
  store ptr %69, ptr %66, align 8
  br label %70

70:                                               ; preds = %68, %65
  %71 = getelementptr inbounds nuw i8, ptr %.04555, i64 88
  %72 = add nuw nsw i32 %.04654, 1
  %73 = load i32, ptr %4, align 8
  %74 = icmp slt i32 %72, %73
  br i1 %74, label %.lr.ph58, label %.loopexit, !llvm.loop !23

.loopexit:                                        ; preds = %70, %7, %1, %3
  %.044 = phi ptr [ null, %3 ], [ null, %1 ], [ %8, %7 ], [ %8, %70 ]
  ret ptr %.044
}